target datalayout = "e-m:e-p270:32:32-p271:32:32-p272:64:64-i64:64-i128:128-f80:128-n8:16:32:64-S128"
target triple = "x86_64-pc-linux-gnu"

%struct.H264SliceContext = type { ptr, %struct.GetBitContext, ptr, i32, i32, i32, i32, i32, [2 x i32], i32, i32, i32, i32, i32, %struct.H264PredWeightTable, i32, i32, i32, i32, [40 x i8], ptr, i32, i32, i32, [2 x i32], i32, i32, i32, [2 x i32], ptr, i32, i32, i32, i32, i32, i64, i64, i64, i64, i32, i32, i32, i32, i32, i32, i32, i32, i32, i32, i32, i32, i32, i32, i32, i32, i32, i32, i32, i32, [32 x i32], [2 x [32 x i32]], [2 x [48 x i32]], [2 x [2 x [48 x i32]]], [2 x i32], i32, [2 x [48 x %struct.H264Ref]], [2 x [32 x %struct.anon]], [2 x i32], i32, ptr, ptr, ptr, [2 x ptr], i32, i32, [2 x i32], [120 x i8], [8 x i8], [2 x [40 x [2 x i16]]], [2 x [40 x i8]], [2 x [40 x [2 x i8]]], [40 x i8], [4 x i16], [1536 x i16], [3 x [32 x i16]], [512 x i16], [2 x ptr], %struct.CABACContext, [1024 x i8], i32, [67 x %struct.MMCO], i32, i32, i32, i32, i32, i32, [2 x i32], i32, i32 }
%struct.GetBitContext = type { ptr, ptr, i32, i32, i32 }
%struct.H264PredWeightTable = type { i32, i32, i32, i32, [2 x i32], [2 x i32], [48 x [2 x [2 x i32]]], [48 x [2 x [2 x [2 x i32]]]], [48 x [48 x [2 x i32]]] }
%struct.H264Ref = type { [3 x ptr], [3 x i32], i32, i32, i32, ptr }
%struct.anon = type { i8, i32 }
%struct.CABACContext = type { i32, i32, ptr, ptr, ptr }
%struct.MMCO = type { i32, i32, i32 }

@scan8 = internal constant [51 x i8] c"\0C\0D\14\15\0E\0F\16\17\1C\1D$%\1E\1F&'45<=67>?DELMFGNO\\]de^_fglmtunovw\00(P", align 16
@ff_h264_cabac_tables = external constant [1343 x i8], align 16

; Function Attrs: nounwind uwtable
define internal void @refill2(ptr noundef %0) #0 {
  %2 = alloca ptr, align 8
  %3 = alloca i32, align 4
  %4 = alloca i32, align 4
  store ptr %0, ptr %2, align 8, !tbaa !173
  call void @llvm.lifetime.start.p0(i64 4, ptr %3) #9
  call void @llvm.lifetime.start.p0(i64 4, ptr %4) #9
  %5 = load ptr, ptr %2, align 8, !tbaa !173
  %6 = getelementptr inbounds nuw %struct.CABACContext, ptr %5, i32 0, i32 0
  %7 = load i32, ptr %6, align 8, !tbaa !201
  %8 = load ptr, ptr %2, align 8, !tbaa !173
  %9 = getelementptr inbounds nuw %struct.CABACContext, ptr %8, i32 0, i32 0
  %10 = load i32, ptr %9, align 8, !tbaa !201
  %11 = sub nsw i32 %10, 1
  %12 = xor i32 %7, %11
  store i32 %12, ptr %4, align 4, !tbaa !77
  %13 = load i32, ptr %4, align 4, !tbaa !77
  %14 = lshr i32 %13, 15
  %15 = zext i32 %14 to i64
  %16 = getelementptr inbounds nuw i8, ptr @ff_h264_cabac_tables, i64 %15
  %17 = load i8, ptr %16, align 1, !tbaa !81
  %18 = zext i8 %17 to i32
  %19 = sub nsw i32 7, %18
  store i32 %19, ptr %3, align 4, !tbaa !77
  store i32 -65535, ptr %4, align 4, !tbaa !77
  %20 = load ptr, ptr %2, align 8, !tbaa !173
  %21 = getelementptr inbounds nuw %struct.CABACContext, ptr %20, i32 0, i32 3
  %22 = load ptr, ptr %21, align 8, !tbaa !202
  %23 = getelementptr inbounds i8, ptr %22, i64 0
  %24 = load i8, ptr %23, align 1, !tbaa !81
  %25 = zext i8 %24 to i32
  %26 = shl i32 %25, 9
  %27 = load ptr, ptr %2, align 8, !tbaa !173
  %28 = getelementptr inbounds nuw %struct.CABACContext, ptr %27, i32 0, i32 3
  %29 = load ptr, ptr %28, align 8, !tbaa !202
  %30 = getelementptr inbounds i8, ptr %29, i64 1
  %31 = load i8, ptr %30, align 1, !tbaa !81
  %32 = zext i8 %31 to i32
  %33 = shl i32 %32, 1
  %34 = add nsw i32 %26, %33
  %35 = load i32, ptr %4, align 4, !tbaa !77
  %36 = add i32 %35, %34
  store i32 %36, ptr %4, align 4, !tbaa !77
  %37 = load i32, ptr %4, align 4, !tbaa !77
  %38 = load i32, ptr %3, align 4, !tbaa !77
  %39 = shl i32 %37, %38
  %40 = load ptr, ptr %2, align 8, !tbaa !173
  %41 = getelementptr inbounds nuw %struct.CABACContext, ptr %40, i32 0, i32 0
  %42 = load i32, ptr %41, align 8, !tbaa !201
  %43 = add i32 %42, %39
  store i32 %43, ptr %41, align 8, !tbaa !201
  %44 = load ptr, ptr %2, align 8, !tbaa !173
  %45 = getelementptr inbounds nuw %struct.CABACContext, ptr %44, i32 0, i32 3
  %46 = load ptr, ptr %45, align 8, !tbaa !202
  %47 = getelementptr inbounds i8, ptr %46, i64 2
  store ptr %47, ptr %45, align 8, !tbaa !202
  call void @llvm.lifetime.end.p0(i64 4, ptr %4) #9
  call void @llvm.lifetime.end.p0(i64 4, ptr %3) #9
  ret void
}

; Function Attrs: alwaysinline nounwind uwtable
define internal i32 @get_cabac_inline(ptr noundef %0, ptr noundef %1) #6 {
  %3 = alloca ptr, align 8
  %4 = alloca ptr, align 8
  %5 = alloca i32, align 4
  %6 = alloca i32, align 4
  %7 = alloca i32, align 4
  %8 = alloca i32, align 4
  store ptr %0, ptr %3, align 8, !tbaa !173
  store ptr %1, ptr %4, align 8, !tbaa !79
  call void @llvm.lifetime.start.p0(i64 4, ptr %5) #9
  %9 = load ptr, ptr %4, align 8, !tbaa !79
  %10 = load i8, ptr %9, align 1, !tbaa !81
  %11 = zext i8 %10 to i32
  store i32 %11, ptr %5, align 4, !tbaa !77
  call void @llvm.lifetime.start.p0(i64 4, ptr %6) #9
  %12 = load ptr, ptr %3, align 8, !tbaa !173
  %13 = getelementptr inbounds nuw %struct.CABACContext, ptr %12, i32 0, i32 1
  %14 = load i32, ptr %13, align 4, !tbaa !200
  %15 = and i32 %14, 192
  %16 = mul nsw i32 2, %15
  %17 = load i32, ptr %5, align 4, !tbaa !77
  %18 = add nsw i32 %16, %17
  %19 = sext i32 %18 to i64
  %20 = getelementptr inbounds i8, ptr getelementptr (i8, ptr @ff_h264_cabac_tables, i64 512), i64 %19
  %21 = load i8, ptr %20, align 1, !tbaa !81
  %22 = zext i8 %21 to i32
  store i32 %22, ptr %6, align 4, !tbaa !77
  call void @llvm.lifetime.start.p0(i64 4, ptr %7) #9
  call void @llvm.lifetime.start.p0(i64 4, ptr %8) #9
  %23 = load i32, ptr %6, align 4, !tbaa !77
  %24 = load ptr, ptr %3, align 8, !tbaa !173
  %25 = getelementptr inbounds nuw %struct.CABACContext, ptr %24, i32 0, i32 1
  %26 = load i32, ptr %25, align 4, !tbaa !200
  %27 = sub nsw i32 %26, %23
  store i32 %27, ptr %25, align 4, !tbaa !200
  %28 = load ptr, ptr %3, align 8, !tbaa !173
  %29 = getelementptr inbounds nuw %struct.CABACContext, ptr %28, i32 0, i32 1
  %30 = load i32, ptr %29, align 4, !tbaa !200
  %31 = shl i32 %30, 17
  %32 = load ptr, ptr %3, align 8, !tbaa !173
  %33 = getelementptr inbounds nuw %struct.CABACContext, ptr %32, i32 0, i32 0
  %34 = load i32, ptr %33, align 8, !tbaa !201
  %35 = sub nsw i32 %31, %34
  %36 = ashr i32 %35, 31
  store i32 %36, ptr %8, align 4, !tbaa !77
  %37 = load ptr, ptr %3, align 8, !tbaa !173
  %38 = getelementptr inbounds nuw %struct.CABACContext, ptr %37, i32 0, i32 1
  %39 = load i32, ptr %38, align 4, !tbaa !200
  %40 = shl i32 %39, 17
  %41 = load i32, ptr %8, align 4, !tbaa !77
  %42 = and i32 %40, %41
  %43 = load ptr, ptr %3, align 8, !tbaa !173
  %44 = getelementptr inbounds nuw %struct.CABACContext, ptr %43, i32 0, i32 0
  %45 = load i32, ptr %44, align 8, !tbaa !201
  %46 = sub nsw i32 %45, %42
  store i32 %46, ptr %44, align 8, !tbaa !201
  %47 = load i32, ptr %6, align 4, !tbaa !77
  %48 = load ptr, ptr %3, align 8, !tbaa !173
  %49 = getelementptr inbounds nuw %struct.CABACContext, ptr %48, i32 0, i32 1
  %50 = load i32, ptr %49, align 4, !tbaa !200
  %51 = sub nsw i32 %47, %50
  %52 = load i32, ptr %8, align 4, !tbaa !77
  %53 = and i32 %51, %52
  %54 = load ptr, ptr %3, align 8, !tbaa !173
  %55 = getelementptr inbounds nuw %struct.CABACContext, ptr %54, i32 0, i32 1
  %56 = load i32, ptr %55, align 4, !tbaa !200
  %57 = add nsw i32 %56, %53
  store i32 %57, ptr %55, align 4, !tbaa !200
  %58 = load i32, ptr %8, align 4, !tbaa !77
  %59 = load i32, ptr %5, align 4, !tbaa !77
  %60 = xor i32 %59, %58
  store i32 %60, ptr %5, align 4, !tbaa !77
  %61 = load i32, ptr %5, align 4, !tbaa !77
  %62 = sext i32 %61 to i64
  %63 = getelementptr inbounds i8, ptr getelementptr inbounds (i8, ptr getelementptr (i8, ptr @ff_h264_cabac_tables, i64 1024), i64 128), i64 %62
  %64 = load i8, ptr %63, align 1, !tbaa !81
  %65 = load ptr, ptr %4, align 8, !tbaa !79
  store i8 %64, ptr %65, align 1, !tbaa !81
  %66 = load i32, ptr %5, align 4, !tbaa !77
  %67 = and i32 %66, 1
  store i32 %67, ptr %7, align 4, !tbaa !77
  %68 = load ptr, ptr %3, align 8, !tbaa !173
  %69 = getelementptr inbounds nuw %struct.CABACContext, ptr %68, i32 0, i32 1
  %70 = load i32, ptr %69, align 4, !tbaa !200
  %71 = sext i32 %70 to i64
  %72 = getelementptr inbounds i8, ptr @ff_h264_cabac_tables, i64 %71
  %73 = load i8, ptr %72, align 1, !tbaa !81
  %74 = zext i8 %73 to i32
  store i32 %74, ptr %8, align 4, !tbaa !77
  %75 = load i32, ptr %8, align 4, !tbaa !77
  %76 = load ptr, ptr %3, align 8, !tbaa !173
  %77 = getelementptr inbounds nuw %struct.CABACContext, ptr %76, i32 0, i32 1
  %78 = load i32, ptr %77, align 4, !tbaa !200
  %79 = shl i32 %78, %75
  store i32 %79, ptr %77, align 4, !tbaa !200
  %80 = load i32, ptr %8, align 4, !tbaa !77
  %81 = load ptr, ptr %3, align 8, !tbaa !173
  %82 = getelementptr inbounds nuw %struct.CABACContext, ptr %81, i32 0, i32 0
  %83 = load i32, ptr %82, align 8, !tbaa !201
  %84 = shl i32 %83, %80
  store i32 %84, ptr %82, align 8, !tbaa !201
  %85 = load ptr, ptr %3, align 8, !tbaa !173
  %86 = getelementptr inbounds nuw %struct.CABACContext, ptr %85, i32 0, i32 0
  %87 = load i32, ptr %86, align 8, !tbaa !201
  %88 = and i32 %87, 65535
  %89 = icmp ne i32 %88, 0
  br i1 %89, label %92, label %90

90:                                               ; preds = %2
  %91 = load ptr, ptr %3, align 8, !tbaa !173
  call void @refill2(ptr noundef %91)
  br label %92

92:                                               ; preds = %90, %2
  %93 = load i32, ptr %7, align 4, !tbaa !77
  call void @llvm.lifetime.end.p0(i64 4, ptr %8) #9
  call void @llvm.lifetime.end.p0(i64 4, ptr %7) #9
  call void @llvm.lifetime.end.p0(i64 4, ptr %6) #9
  call void @llvm.lifetime.end.p0(i64 4, ptr %5) #9
  ret i32 %93
}

; Function Attrs: nounwind uwtable
define internal i32 @get_cabac(ptr noundef %0, ptr noundef %1) #0 {
  %3 = alloca ptr, align 8
  %4 = alloca ptr, align 8
  store ptr %0, ptr %3, align 8, !tbaa !173
  store ptr %1, ptr %4, align 8, !tbaa !79
  %5 = load ptr, ptr %3, align 8, !tbaa !173
  %6 = load ptr, ptr %4, align 8, !tbaa !79
  %7 = call i32 @get_cabac_inline(ptr noundef %5, ptr noundef %6)
  ret i32 %7
}

; Function Attrs: nounwind uwtable
define internal i32 @decode_cabac_mb_ref(ptr noundef %0, i32 noundef %1, i32 noundef %2) #0 {
  %4 = alloca i32, align 4
  %5 = alloca ptr, align 8
  %6 = alloca i32, align 4
  %7 = alloca i32, align 4
  %8 = alloca i32, align 4
  %9 = alloca i32, align 4
  %10 = alloca i32, align 4
  %11 = alloca i32, align 4
  %12 = alloca i32, align 4
  store ptr %0, ptr %5, align 8, !tbaa !9
  store i32 %1, ptr %6, align 4, !tbaa !77
  store i32 %2, ptr %7, align 4, !tbaa !77
  call void @llvm.lifetime.start.p0(i64 4, ptr %8) #9
  %13 = load ptr, ptr %5, align 8, !tbaa !9
  %14 = getelementptr inbounds nuw %struct.H264SliceContext, ptr %13, i32 0, i32 79
  %15 = load i32, ptr %6, align 4, !tbaa !77
  %16 = sext i32 %15 to i64
  %17 = getelementptr inbounds [2 x [40 x i8]], ptr %14, i64 0, i64 %16
  %18 = load i32, ptr %7, align 4, !tbaa !77
  %19 = sext i32 %18 to i64
  %20 = getelementptr inbounds [51 x i8], ptr @scan8, i64 0, i64 %19
  %21 = load i8, ptr %20, align 1, !tbaa !81
  %22 = zext i8 %21 to i32
  %23 = sub nsw i32 %22, 1
  %24 = sext i32 %23 to i64
  %25 = getelementptr inbounds [40 x i8], ptr %17, i64 0, i64 %24
  %26 = load i8, ptr %25, align 1, !tbaa !81
  %27 = sext i8 %26 to i32
  store i32 %27, ptr %8, align 4, !tbaa !77
  call void @llvm.lifetime.start.p0(i64 4, ptr %9) #9
  %28 = load ptr, ptr %5, align 8, !tbaa !9
  %29 = getelementptr inbounds nuw %struct.H264SliceContext, ptr %28, i32 0, i32 79
  %30 = load i32, ptr %6, align 4, !tbaa !77
  %31 = sext i32 %30 to i64
  %32 = getelementptr inbounds [2 x [40 x i8]], ptr %29, i64 0, i64 %31
  %33 = load i32, ptr %7, align 4, !tbaa !77
  %34 = sext i32 %33 to i64
  %35 = getelementptr inbounds [51 x i8], ptr @scan8, i64 0, i64 %34
  %36 = load i8, ptr %35, align 1, !tbaa !81
  %37 = zext i8 %36 to i32
  %38 = sub nsw i32 %37, 8
  %39 = sext i32 %38 to i64
  %40 = getelementptr inbounds [40 x i8], ptr %32, i64 0, i64 %39
  %41 = load i8, ptr %40, align 1, !tbaa !81
  %42 = sext i8 %41 to i32
  store i32 %42, ptr %9, align 4, !tbaa !77
  call void @llvm.lifetime.start.p0(i64 4, ptr %10) #9
  store i32 0, ptr %10, align 4, !tbaa !77
  call void @llvm.lifetime.start.p0(i64 4, ptr %11) #9
  store i32 0, ptr %11, align 4, !tbaa !77
  %43 = load ptr, ptr %5, align 8, !tbaa !9
  %44 = getelementptr inbounds nuw %struct.H264SliceContext, ptr %43, i32 0, i32 5
  %45 = load i32, ptr %44, align 8, !tbaa !78
  %46 = icmp eq i32 %45, 3
  br i1 %46, label %47, label %90

47:                                               ; preds = %3
  %48 = load i32, ptr %8, align 4, !tbaa !77
  %49 = icmp sgt i32 %48, 0
  br i1 %49, label %50, label %68

50:                                               ; preds = %47
  %51 = load ptr, ptr %5, align 8, !tbaa !9
  %52 = getelementptr inbounds nuw %struct.H264SliceContext, ptr %51, i32 0, i32 81
  %53 = load i32, ptr %7, align 4, !tbaa !77
  %54 = sext i32 %53 to i64
  %55 = getelementptr inbounds [51 x i8], ptr @scan8, i64 0, i64 %54
  %56 = load i8, ptr %55, align 1, !tbaa !81
  %57 = zext i8 %56 to i32
  %58 = sub nsw i32 %57, 1
  %59 = sext i32 %58 to i64
  %60 = getelementptr inbounds [40 x i8], ptr %52, i64 0, i64 %59
  %61 = load i8, ptr %60, align 1, !tbaa !81
  %62 = zext i8 %61 to i32
  %63 = and i32 %62, 128
  %64 = icmp ne i32 %63, 0
  br i1 %64, label %68, label %65

65:                                               ; preds = %50
  %66 = load i32, ptr %11, align 4, !tbaa !77
  %67 = add nsw i32 %66, 1
  store i32 %67, ptr %11, align 4, !tbaa !77
  br label %68

68:                                               ; preds = %65, %50, %47
  %69 = load i32, ptr %9, align 4, !tbaa !77
  %70 = icmp sgt i32 %69, 0
  br i1 %70, label %71, label %89

71:                                               ; preds = %68
  %72 = load ptr, ptr %5, align 8, !tbaa !9
  %73 = getelementptr inbounds nuw %struct.H264SliceContext, ptr %72, i32 0, i32 81
  %74 = load i32, ptr %7, align 4, !tbaa !77
  %75 = sext i32 %74 to i64
  %76 = getelementptr inbounds [51 x i8], ptr @scan8, i64 0, i64 %75
  %77 = load i8, ptr %76, align 1, !tbaa !81
  %78 = zext i8 %77 to i32
  %79 = sub nsw i32 %78, 8
  %80 = sext i32 %79 to i64
  %81 = getelementptr inbounds [40 x i8], ptr %73, i64 0, i64 %80
  %82 = load i8, ptr %81, align 1, !tbaa !81
  %83 = zext i8 %82 to i32
  %84 = and i32 %83, 128
  %85 = icmp ne i32 %84, 0
  br i1 %85, label %89, label %86

86:                                               ; preds = %71
  %87 = load i32, ptr %11, align 4, !tbaa !77
  %88 = add nsw i32 %87, 2
  store i32 %88, ptr %11, align 4, !tbaa !77
  br label %89

89:                                               ; preds = %86, %71, %68
  br label %103

90:                                               ; preds = %3
  %91 = load i32, ptr %8, align 4, !tbaa !77
  %92 = icmp sgt i32 %91, 0
  br i1 %92, label %93, label %96

93:                                               ; preds = %90
  %94 = load i32, ptr %11, align 4, !tbaa !77
  %95 = add nsw i32 %94, 1
  store i32 %95, ptr %11, align 4, !tbaa !77
  br label %96

96:                                               ; preds = %93, %90
  %97 = load i32, ptr %9, align 4, !tbaa !77
  %98 = icmp sgt i32 %97, 0
  br i1 %98, label %99, label %102

99:                                               ; preds = %96
  %100 = load i32, ptr %11, align 4, !tbaa !77
  %101 = add nsw i32 %100, 2
  store i32 %101, ptr %11, align 4, !tbaa !77
  br label %102

102:                                              ; preds = %99, %96
  br label %103

103:                                              ; preds = %102, %89
  br label %104

104:                                              ; preds = %124, %103
  %105 = load ptr, ptr %5, align 8, !tbaa !9
  %106 = getelementptr inbounds nuw %struct.H264SliceContext, ptr %105, i32 0, i32 87
  %107 = load ptr, ptr %5, align 8, !tbaa !9
  %108 = getelementptr inbounds nuw %struct.H264SliceContext, ptr %107, i32 0, i32 88
  %109 = load i32, ptr %11, align 4, !tbaa !77
  %110 = add nsw i32 54, %109
  %111 = sext i32 %110 to i64
  %112 = getelementptr inbounds [1024 x i8], ptr %108, i64 0, i64 %111
  %113 = call i32 @get_cabac(ptr noundef %106, ptr noundef %112)
  %114 = icmp ne i32 %113, 0
  br i1 %114, label %115, label %125

115:                                              ; preds = %104
  %116 = load i32, ptr %10, align 4, !tbaa !77
  %117 = add nsw i32 %116, 1
  store i32 %117, ptr %10, align 4, !tbaa !77
  %118 = load i32, ptr %11, align 4, !tbaa !77
  %119 = ashr i32 %118, 2
  %120 = add nsw i32 %119, 4
  store i32 %120, ptr %11, align 4, !tbaa !77
  %121 = load i32, ptr %10, align 4, !tbaa !77
  %122 = icmp sge i32 %121, 32
  br i1 %122, label %123, label %124

123:                                              ; preds = %115
  store i32 -1, ptr %4, align 4
  store i32 1, ptr %12, align 4
  br label %127

124:                                              ; preds = %115
  br label %104, !llvm.loop !191

125:                                              ; preds = %104
  %126 = load i32, ptr %10, align 4, !tbaa !77
  store i32 %126, ptr %4, align 4
  store i32 1, ptr %12, align 4
  br label %127

127:                                              ; preds = %125, %123
  call void @llvm.lifetime.end.p0(i64 4, ptr %11) #9
  call void @llvm.lifetime.end.p0(i64 4, ptr %10) #9
  call void @llvm.lifetime.end.p0(i64 4, ptr %9) #9
  call void @llvm.lifetime.end.p0(i64 4, ptr %8) #9
  %128 = load i32, ptr %4, align 4
  ret i32 %128
}