; Function Attrs: nofree norecurse nosync nounwind memory(read, argmem: readwrite, inaccessiblemem: none) uwtable
define internal fastcc range(i32 -1, 32) i32 @decode_cabac_mb_ref(ptr noundef captures(none) %0, i32 noundef %1, i32 noundef range(i32 -2147483648, 13) %2) unnamed_addr #0 {
  %4 = getelementptr inbounds nuw i8, ptr %0, i64 29072
  %5 = sext i32 %1 to i64
  %6 = sext i32 %2 to i64
  %7 = getelementptr inbounds [51 x i8], ptr @scan8, i64 0, i64 %6
  %8 = load i8, ptr %7, align 1, !tbaa !77
  %9 = zext i8 %8 to i32
  %10 = add nsw i32 %9, -1
  %11 = sext i32 %10 to i64
  %12 = getelementptr inbounds [2 x [40 x i8]], ptr %4, i64 0, i64 %5, i64 %11
  %13 = load i8, ptr %12, align 1, !tbaa !77
  %14 = add nsw i32 %9, -8
  %15 = sext i32 %14 to i64
  %16 = getelementptr inbounds [2 x [40 x i8]], ptr %4, i64 0, i64 %5, i64 %15
  %17 = load i8, ptr %16, align 1, !tbaa !77
  %18 = getelementptr inbounds nuw i8, ptr %0, i64 56
  %19 = load i32, ptr %18, align 8, !tbaa !75
  %20 = icmp eq i32 %19, 3
  %21 = icmp sgt i8 %13, 0
  br i1 %20, label %22, label %36

22:                                               ; preds = %3
  br i1 %21, label %23, label %27

23:                                               ; preds = %22
  %24 = getelementptr inbounds nuw i8, ptr %0, i64 29312
  %25 = getelementptr inbounds [40 x i8], ptr %24, i64 0, i64 %11
  %26 = load i8, ptr %25, align 1, !tbaa !77
  %.not = icmp sgt i8 %26, -1
  %spec.select = zext i1 %.not to i32
  br label %27

27:                                               ; preds = %23, %22
  %.0 = phi i32 [ 0, %22 ], [ %spec.select, %23 ]
  %28 = icmp sgt i8 %17, 0
  br i1 %28, label %29, label %39

29:                                               ; preds = %27
  %30 = getelementptr inbounds nuw i8, ptr %0, i64 29312
  %31 = zext i8 %8 to i64
  %32 = add nsw i64 %31, -8
  %33 = getelementptr inbounds [40 x i8], ptr %30, i64 0, i64 %32
  %34 = load i8, ptr %33, align 1, !tbaa !77
  %35 = or disjoint i32 %.0, 2
  %.not2934 = icmp slt i8 %34, 0
  %spec.select31 = select i1 %.not2934, i32 %.0, i32 %35
  br label %39

36:                                               ; preds = %3
  %spec.select32 = zext i1 %21 to i32
  %37 = icmp sgt i8 %17, 0
  %38 = or disjoint i32 %spec.select32, 2
  %spec.select33 = select i1 %37, i32 %38, i32 %spec.select32
  br label %39

39:                                               ; preds = %36, %29, %27
  %.1 = phi i32 [ %.0, %27 ], [ %spec.select31, %29 ], [ %spec.select33, %36 ]
  %40 = getelementptr inbounds nuw i8, ptr %0, i64 33664
  %41 = getelementptr inbounds nuw i8, ptr %0, i64 33696
  %42 = getelementptr inbounds nuw i8, ptr %0, i64 33668
  %.promoted = load i32, ptr %42, align 4, !tbaa !138
  %.promoted35 = load i32, ptr %40, align 8, !tbaa !139
  %43 = getelementptr inbounds nuw i8, ptr %0, i64 33680
  br label %44

44:                                               ; preds = %101, %39
  %45 = phi i32 [ %.promoted35, %39 ], [ %99, %101 ]
  %46 = phi i32 [ %.promoted, %39 ], [ %74, %101 ]
  %.026 = phi i32 [ 0, %39 ], [ %102, %101 ]
  %.3 = phi i32 [ %.1, %39 ], [ %104, %101 ]
  %47 = add nuw nsw i32 %.3, 54
  %48 = zext nneg i32 %47 to i64
  %49 = getelementptr inbounds nuw [1024 x i8], ptr %41, i64 0, i64 %48
  %50 = load i8, ptr %49, align 1, !tbaa !77
  %51 = zext i8 %50 to i32
  %52 = shl i32 %46, 1
  %53 = and i32 %52, 384
  %54 = add nuw nsw i32 %53, %51
  %55 = zext nneg i32 %54 to i64
  %56 = getelementptr inbounds nuw i8, ptr getelementptr inbounds nuw (i8, ptr @ff_h264_cabac_tables, i64 512), i64 %55
  %57 = load i8, ptr %56, align 1, !tbaa !77
  %58 = zext i8 %57 to i32
  %59 = sub nsw i32 %46, %58
  %60 = shl i32 %59, 17
  %61 = icmp slt i32 %60, %45
  %62 = sext i1 %61 to i32
  %63 = select i1 %61, i32 %60, i32 0
  %64 = sub nsw i32 %45, %63
  %65 = select i1 %61, i32 %58, i32 %59
  %66 = xor i32 %62, %51
  %67 = sext i32 %66 to i64
  %68 = getelementptr inbounds i8, ptr getelementptr inbounds nuw (i8, ptr @ff_h264_cabac_tables, i64 1152), i64 %67
  %69 = load i8, ptr %68, align 1, !tbaa !77
  store i8 %69, ptr %49, align 1, !tbaa !77
  %70 = sext i32 %65 to i64
  %71 = getelementptr inbounds i8, ptr @ff_h264_cabac_tables, i64 %70
  %72 = load i8, ptr %71, align 1, !tbaa !77
  %73 = zext i8 %72 to i32
  %74 = shl i32 %65, %73
  store i32 %74, ptr %42, align 4, !tbaa !138
  %75 = shl i32 %64, %73
  store i32 %75, ptr %40, align 8, !tbaa !139
  %76 = and i32 %75, 65535
  %.not.i.i = icmp eq i32 %76, 0
  br i1 %.not.i.i, label %77, label %get_cabac.exit

77:                                               ; preds = %44
  %78 = add nsw i32 %75, -1
  %79 = xor i32 %78, %75
  %80 = lshr i32 %79, 15
  %81 = zext nneg i32 %80 to i64
  %82 = getelementptr inbounds nuw i8, ptr @ff_h264_cabac_tables, i64 %81
  %83 = load i8, ptr %82, align 1, !tbaa !77
  %84 = zext i8 %83 to i32
  %85 = sub nsw i32 7, %84
  %86 = load ptr, ptr %43, align 8, !tbaa !140
  %87 = load i8, ptr %86, align 1, !tbaa !77
  %88 = zext i8 %87 to i32
  %89 = shl nuw nsw i32 %88, 9
  %90 = getelementptr inbounds nuw i8, ptr %86, i64 1
  %91 = load i8, ptr %90, align 1, !tbaa !77
  %92 = zext i8 %91 to i32
  %93 = shl nuw nsw i32 %92, 1
  %94 = or disjoint i32 %93, %89
  %95 = add nsw i32 %94, -65535
  %96 = shl nsw i32 %95, %85
  %97 = add i32 %96, %75
  store i32 %97, ptr %40, align 8, !tbaa !139
  %98 = getelementptr inbounds nuw i8, ptr %86, i64 2
  store ptr %98, ptr %43, align 8, !tbaa !140
  br label %get_cabac.exit

get_cabac.exit:                                   ; preds = %44, %77
  %99 = phi i32 [ %75, %44 ], [ %97, %77 ]
  %100 = and i32 %66, 1
  %.not30 = icmp eq i32 %100, 0
  br i1 %.not30, label %105, label %101

101:                                              ; preds = %get_cabac.exit
  %102 = add nuw nsw i32 %.026, 1
  %103 = lshr i32 %.3, 2
  %104 = add nuw nsw i32 %103, 4
  %exitcond = icmp eq i32 %102, 32
  br i1 %exitcond, label %105, label %44, !llvm.loop !192

105:                                              ; preds = %get_cabac.exit, %101
  %.027 = phi i32 [ -1, %101 ], [ %.026, %get_cabac.exit ]
  ret i32 %.027
}